target datalayout = "e-m:e-p270:32:32-p271:32:32-p272:64:64-i64:64-i128:128-f80:128-n8:16:32:64-S128"
target triple = "x86_64-pc-linux-gnu"

%"class.std::_Function_base" = type { %"union.std::_Any_data", ptr }
%"union.std::_Any_data" = type { %"union.std::_Nocopy_types" }
%"union.std::_Nocopy_types" = type { { i64, i64 } }
%"class.std::__cxx11::basic_string" = type { %"struct.std::__cxx11::basic_string<char>::_Alloc_hider", i64, %union.anon }
%"struct.std::__cxx11::basic_string<char>::_Alloc_hider" = type { ptr }
%union.anon = type { i64, [8 x i8] }
%"class.std::function" = type { %"class.std::_Function_base", ptr }
%"struct.nix::ProcessOptions" = type { %"class.std::__cxx11::basic_string", i8, i8, i8, i32 }
%class.anon.15 = type { ptr, ptr }
%class.Finally = type { %class.anon.16 }
%class.anon.16 = type { ptr, ptr }

@_ZTIN3nix8SysErrorE = linkonce_odr constant { ptr, ptr, ptr } { ptr getelementptr inbounds (ptr, ptr @_ZTVN10__cxxabiv120__si_class_type_infoE, i64 2), ptr @_ZTSN3nix8SysErrorE, ptr @_ZTIN3nix11SystemErrorE }, comdat, align 8
@.str.8 = private unnamed_addr constant [17 x i8] c"allocating stack\00", align 1
@.str.9 = private unnamed_addr constant [15 x i8] c"unable to fork\00", align 1

; Function Attrs: mustprogress nounwind uwtable
define linkonce_odr noundef ptr @_ZNSt9_Any_data9_M_accessEv(ptr noundef nonnull align 8 dereferenceable(16) %0) #2 comdat align 2 {
  %2 = alloca ptr, align 8
  store ptr %0, ptr %2, align 8
  %3 = load ptr, ptr %2, align 8
  %4 = getelementptr inbounds [16 x i8], ptr %3, i64 0, i64 0
  ret ptr %4
}

; Function Attrs: mustprogress nounwind uwtable
define internal void @"_ZNSt14_Function_base13_Base_managerIZN3nix12startProcessESt8functionIFvvEERKNS1_14ProcessOptionsEE3$_0E9_M_createIS8_EEvRSt9_Any_dataOT_St17integral_constantIbLb1EE"(ptr noundef nonnull align 8 dereferenceable(16) %0, ptr noundef nonnull align 8 dereferenceable(16) %1) #2 align 2 {
  %3 = alloca ptr, align 8
  %4 = alloca ptr, align 8
  store ptr %0, ptr %3, align 8
  store ptr %1, ptr %4, align 8
  %5 = load ptr, ptr %3, align 8
  %6 = call noundef ptr @_ZNSt9_Any_data9_M_accessEv(ptr noundef nonnull align 8 dereferenceable(16) %5) #1
  %7 = load ptr, ptr %4, align 8
  call void @llvm.memcpy.p0.p0.i64(ptr align 8 %6, ptr align 8 %7, i64 16, i1 false)
  ret void
}

; Function Attrs: mustprogress nounwind uwtable
define linkonce_odr void @_ZNSt14_Function_baseD2Ev(ptr noundef nonnull align 8 dereferenceable(24) %0) unnamed_addr #2 comdat align 2 personality ptr @__gxx_personality_v0 {
  %2 = alloca ptr, align 8
  store ptr %0, ptr %2, align 8
  %3 = load ptr, ptr %2, align 8
  %4 = getelementptr inbounds %"class.std::_Function_base", ptr %3, i32 0, i32 1
  %5 = load ptr, ptr %4, align 8
  %6 = icmp ne ptr %5, null
  br i1 %6, label %7, label %14

7:                                                ; preds = %1
  %8 = getelementptr inbounds %"class.std::_Function_base", ptr %3, i32 0, i32 1
  %9 = load ptr, ptr %8, align 8
  %10 = getelementptr inbounds %"class.std::_Function_base", ptr %3, i32 0, i32 0
  %11 = getelementptr inbounds %"class.std::_Function_base", ptr %3, i32 0, i32 0
  %12 = invoke noundef zeroext i1 %9(ptr noundef nonnull align 8 dereferenceable(16) %10, ptr noundef nonnull align 8 dereferenceable(16) %11, i32 noundef 3)
          to label %13 unwind label %15

13:                                               ; preds = %7
  br label %14

14:                                               ; preds = %13, %1
  ret void

15:                                               ; preds = %7
  %16 = landingpad { ptr, i32 }
          catch ptr null
  %17 = extractvalue { ptr, i32 } %16, 0
  call void @__clang_call_terminate(ptr %17) #21
  unreachable
}

; Function Attrs: mustprogress nounwind uwtable
define internal void @"_ZZN3nix12startProcessESt8functionIFvvEERKNS_14ProcessOptionsEENK3$_1clEv"(ptr noundef nonnull align 8 dereferenceable(16) %0) #2 align 2 {
  %2 = alloca ptr, align 8
  store ptr %0, ptr %2, align 8
  %3 = load ptr, ptr %2, align 8
  %4 = getelementptr inbounds %class.anon.16, ptr %3, i32 0, i32 0
  %5 = load ptr, ptr %4, align 8
  %6 = load ptr, ptr %5, align 8
  %7 = getelementptr inbounds %class.anon.16, ptr %3, i32 0, i32 1
  %8 = load ptr, ptr %7, align 8
  %9 = load i64, ptr %8, align 8
  %10 = call i32 @munmap(ptr noundef %6, i64 noundef %9) #1
  ret void
}

; Function Attrs: mustprogress nounwind uwtable
define internal void @"_ZNSt14_Function_base13_Base_managerIZN3nix12startProcessESt8functionIFvvEERKNS1_14ProcessOptionsEE3$_0E15_M_init_functorIS8_EEvRSt9_Any_dataOT_"(ptr noundef nonnull align 8 dereferenceable(16) %0, ptr noundef nonnull align 8 dereferenceable(16) %1) #2 align 2 personality ptr @__gxx_personality_v0 {
  %3 = alloca ptr, align 8
  %4 = alloca ptr, align 8
  store ptr %0, ptr %3, align 8
  store ptr %1, ptr %4, align 8
  %5 = load ptr, ptr %3, align 8
  %6 = load ptr, ptr %4, align 8
  invoke void @"_ZNSt14_Function_base13_Base_managerIZN3nix12startProcessESt8functionIFvvEERKNS1_14ProcessOptionsEE3$_0E9_M_createIS8_EEvRSt9_Any_dataOT_St17integral_constantIbLb1EE"(ptr noundef nonnull align 8 dereferenceable(16) %5, ptr noundef nonnull align 8 dereferenceable(16) %6)
          to label %7 unwind label %8

7:                                                ; preds = %2
  ret void

8:                                                ; preds = %2
  %9 = landingpad { ptr, i32 }
          catch ptr null
  %10 = extractvalue { ptr, i32 } %9, 0
  call void @__clang_call_terminate(ptr %10) #21
  unreachable
}

; Function Attrs: mustprogress nounwind uwtable
define internal noundef zeroext i1 @"_ZNSt14_Function_base13_Base_managerIZN3nix12startProcessESt8functionIFvvEERKNS1_14ProcessOptionsEE3$_0E21_M_not_empty_functionIS8_EEbRKT_"(ptr noundef nonnull align 8 dereferenceable(16) %0) #2 align 2 {
  %2 = alloca ptr, align 8
  store ptr %0, ptr %2, align 8
  ret i1 true
}

; Function Attrs: mustprogress nounwind uwtable
define linkonce_odr void @_ZNSt14_Function_baseC2Ev(ptr noundef nonnull align 8 dereferenceable(24) %0) unnamed_addr #2 comdat align 2 {
  %2 = alloca ptr, align 8
  store ptr %0, ptr %2, align 8
  %3 = load ptr, ptr %2, align 8
  %4 = getelementptr inbounds %"class.std::_Function_base", ptr %3, i32 0, i32 0
  store ptr null, ptr %4, align 8
  %5 = getelementptr inbounds %"class.std::_Function_base", ptr %3, i32 0, i32 1
  store ptr null, ptr %5, align 8
  ret void
}

; Function Attrs: mustprogress nounwind uwtable
define linkonce_odr void @_ZNSt8functionIFvvEED2Ev(ptr noundef nonnull align 8 dereferenceable(32) %0) unnamed_addr #2 comdat align 2 {
  %2 = alloca ptr, align 8
  store ptr %0, ptr %2, align 8
  %3 = load ptr, ptr %2, align 8
  call void @_ZNSt14_Function_baseD2Ev(ptr noundef nonnull align 8 dereferenceable(24) %3) #1
  ret void
}

; Function Attrs: mustprogress uwtable
define linkonce_odr void @_ZN3nix8SysErrorC2IJA15_cEEEDpRKT_(ptr noundef nonnull align 8 dereferenceable(380) %0, ptr noundef nonnull align 1 dereferenceable(15) %1) unnamed_addr #5 comdat align 2 {
  %3 = alloca ptr, align 8
  %4 = alloca ptr, align 8
  store ptr %0, ptr %3, align 8
  store ptr %1, ptr %4, align 8
  %5 = load ptr, ptr %3, align 8
  %6 = call ptr @__errno_location() #23
  %7 = load i32, ptr %6, align 4
  %8 = load ptr, ptr %4, align 8
  call void @_ZN3nix8SysErrorC2IJA15_cEEEiDpRKT_(ptr noundef nonnull align 8 dereferenceable(380) %5, i32 noundef %7, ptr noundef nonnull align 1 dereferenceable(15) %8)
  ret void
}

; Function Attrs: mustprogress nounwind uwtable
define internal void @"_ZN7FinallyIZN3nix12startProcessESt8functionIFvvEERKNS0_14ProcessOptionsEE3$_1ED2Ev"(ptr noundef nonnull align 8 dereferenceable(16) %0) unnamed_addr #2 align 2 personality ptr @__gxx_personality_v0 {
  %2 = alloca ptr, align 8
  store ptr %0, ptr %2, align 8
  %3 = load ptr, ptr %2, align 8
  %4 = getelementptr inbounds %class.Finally, ptr %3, i32 0, i32 0
  invoke void @"_ZZN3nix12startProcessESt8functionIFvvEERKNS_14ProcessOptionsEENK3$_1clEv"(ptr noundef nonnull align 8 dereferenceable(16) %4)
          to label %5 unwind label %6

5:                                                ; preds = %1
  ret void

6:                                                ; preds = %1
  %7 = landingpad { ptr, i32 }
          catch ptr null
  %8 = extractvalue { ptr, i32 } %7, 0
  call void @__clang_call_terminate(ptr %8) #21
  unreachable
}

; Function Attrs: mustprogress nounwind uwtable
define internal void @"_ZN7FinallyIZN3nix12startProcessESt8functionIFvvEERKNS0_14ProcessOptionsEE3$_1EC2ES7_"(ptr noundef nonnull align 8 dereferenceable(16) %0, ptr %1, ptr %2) unnamed_addr #2 align 2 {
  %4 = alloca %class.anon.16, align 8
  %5 = alloca ptr, align 8
  %6 = getelementptr inbounds { ptr, ptr }, ptr %4, i32 0, i32 0
  store ptr %1, ptr %6, align 8
  %7 = getelementptr inbounds { ptr, ptr }, ptr %4, i32 0, i32 1
  store ptr %2, ptr %7, align 8
  store ptr %0, ptr %5, align 8
  %8 = load ptr, ptr %5, align 8
  %9 = getelementptr inbounds %class.Finally, ptr %8, i32 0, i32 0
  call void @llvm.memcpy.p0.p0.i64(ptr align 8 %9, ptr align 8 %4, i64 16, i1 false)
  ret void
}

; Function Attrs: mustprogress uwtable
define linkonce_odr void @_ZN3nix8SysErrorC2IJA17_cEEEDpRKT_(ptr noundef nonnull align 8 dereferenceable(380) %0, ptr noundef nonnull align 1 dereferenceable(17) %1) unnamed_addr #5 comdat align 2 {
  %3 = alloca ptr, align 8
  %4 = alloca ptr, align 8
  store ptr %0, ptr %3, align 8
  store ptr %1, ptr %4, align 8
  %5 = load ptr, ptr %3, align 8
  %6 = call ptr @__errno_location() #23
  %7 = load i32, ptr %6, align 4
  %8 = load ptr, ptr %4, align 8
  call void @_ZN3nix8SysErrorC2IJA17_cEEEiDpRKT_(ptr noundef nonnull align 8 dereferenceable(380) %5, i32 noundef %7, ptr noundef nonnull align 1 dereferenceable(17) %8)
  ret void
}

; Function Attrs: mustprogress nounwind uwtable
define internal void @"_ZNSt8functionIFvvEEC2IZN3nix12startProcessES1_RKNS3_14ProcessOptionsEE3$_0vEEOT_"(ptr noundef nonnull align 8 dereferenceable(32) %0, ptr noundef nonnull align 8 dereferenceable(16) %1) unnamed_addr #2 align 2 {
  %3 = alloca ptr, align 8
  %4 = alloca ptr, align 8
  store ptr %0, ptr %3, align 8
  store ptr %1, ptr %4, align 8
  %5 = load ptr, ptr %3, align 8
  %6 = getelementptr inbounds i8, ptr %5, i64 0
  call void @llvm.memset.p0.i64(ptr align 8 %6, i8 0, i64 24, i1 false)
  call void @_ZNSt14_Function_baseC2Ev(ptr noundef nonnull align 8 dereferenceable(24) %5) #1
  %7 = getelementptr inbounds %"class.std::function", ptr %5, i32 0, i32 1
  store ptr null, ptr %7, align 8
  %8 = load ptr, ptr %4, align 8
  %9 = call noundef zeroext i1 @"_ZNSt14_Function_base13_Base_managerIZN3nix12startProcessESt8functionIFvvEERKNS1_14ProcessOptionsEE3$_0E21_M_not_empty_functionIS8_EEbRKT_"(ptr noundef nonnull align 8 dereferenceable(16) %8) #1
  br i1 %9, label %10, label %15

10:                                               ; preds = %2
  %11 = getelementptr inbounds %"class.std::_Function_base", ptr %5, i32 0, i32 0
  %12 = load ptr, ptr %4, align 8
  call void @"_ZNSt14_Function_base13_Base_managerIZN3nix12startProcessESt8functionIFvvEERKNS1_14ProcessOptionsEE3$_0E15_M_init_functorIS8_EEvRSt9_Any_dataOT_"(ptr noundef nonnull align 8 dereferenceable(16) %11, ptr noundef nonnull align 8 dereferenceable(16) %12) #1
  %13 = getelementptr inbounds %"class.std::function", ptr %5, i32 0, i32 1
  store ptr @"_ZNSt17_Function_handlerIFvvEZN3nix12startProcessESt8functionIS0_ERKNS1_14ProcessOptionsEE3$_0E9_M_invokeERKSt9_Any_data", ptr %13, align 8
  %14 = getelementptr inbounds %"class.std::_Function_base", ptr %5, i32 0, i32 1
  store ptr @"_ZNSt17_Function_handlerIFvvEZN3nix12startProcessESt8functionIS0_ERKNS1_14ProcessOptionsEE3$_0E10_M_managerERSt9_Any_dataRKS9_St18_Manager_operation", ptr %14, align 8
  br label %15

15:                                               ; preds = %10, %2
  ret void
}

; Function Attrs: mustprogress uwtable
define noundef i32 @_ZN3nix12startProcessESt8functionIFvvEERKNS_14ProcessOptionsE(ptr noundef %0, ptr noundef nonnull align 8 dereferenceable(40) %1) #5 personality ptr @__gxx_personality_v0 {
  %3 = alloca ptr, align 8
  %4 = alloca ptr, align 8
  %5 = alloca %"class.std::function", align 8
  %6 = alloca %class.anon.15, align 8
  %7 = alloca i32, align 4
  %8 = alloca i64, align 8
  %9 = alloca ptr, align 8
  %10 = alloca ptr, align 8
  %11 = alloca i32, align 4
  %12 = alloca %class.Finally, align 8
  %13 = alloca %class.anon.16, align 8
  store ptr %0, ptr %3, align 8
  store ptr %1, ptr %4, align 8
  %14 = getelementptr inbounds %class.anon.15, ptr %6, i32 0, i32 0
  %15 = load ptr, ptr %4, align 8
  store ptr %15, ptr %14, align 8
  %16 = getelementptr inbounds %class.anon.15, ptr %6, i32 0, i32 1
  store ptr %0, ptr %16, align 8
  call void @"_ZNSt8functionIFvvEEC2IZN3nix12startProcessES1_RKNS3_14ProcessOptionsEE3$_0vEEOT_"(ptr noundef nonnull align 8 dereferenceable(32) %5, ptr noundef nonnull align 8 dereferenceable(16) %6) #1
  store i32 -1, ptr %7, align 4
  %17 = load ptr, ptr %4, align 8
  %18 = getelementptr inbounds %"struct.nix::ProcessOptions", ptr %17, i32 0, i32 4
  %19 = load i32, ptr %18, align 4
  %20 = icmp ne i32 %19, 0
  br i1 %20, label %21, label %53

21:                                               ; preds = %2
  store i64 1048576, ptr %8, align 8
  %22 = load i64, ptr %8, align 8
  %23 = call ptr @mmap(ptr noundef null, i64 noundef %22, i32 noundef 3, i32 noundef 131106, i32 noundef -1, i64 noundef 0) #1
  store ptr %23, ptr %9, align 8
  %24 = load ptr, ptr %9, align 8
  %25 = icmp eq ptr %24, inttoptr (i64 -1 to ptr)
  br i1 %25, label %26, label %37

26:                                               ; preds = %21
  %27 = call ptr @__cxa_allocate_exception(i64 384) #1
  invoke void @_ZN3nix8SysErrorC2IJA17_cEEEDpRKT_(ptr noundef nonnull align 8 dereferenceable(380) %27, ptr noundef nonnull align 1 dereferenceable(17) @.str.8)
          to label %28 unwind label %29

28:                                               ; preds = %26
  invoke void @__cxa_throw(ptr %27, ptr @_ZTIN3nix8SysErrorE, ptr @_ZN3nix8SysErrorD2Ev) #22
          to label %78 unwind label %33

29:                                               ; preds = %26
  %30 = landingpad { ptr, i32 }
          cleanup
  %31 = extractvalue { ptr, i32 } %30, 0
  store ptr %31, ptr %10, align 8
  %32 = extractvalue { ptr, i32 } %30, 1
  store i32 %32, ptr %11, align 4
  call void @__cxa_free_exception(ptr %27) #1
  br label %72

33:                                               ; preds = %65, %53, %37, %28
  %34 = landingpad { ptr, i32 }
          cleanup
  %35 = extractvalue { ptr, i32 } %34, 0
  store ptr %35, ptr %10, align 8
  %36 = extractvalue { ptr, i32 } %34, 1
  store i32 %36, ptr %11, align 4
  br label %72

37:                                               ; preds = %21
  %38 = getelementptr inbounds %class.anon.16, ptr %13, i32 0, i32 0
  store ptr %9, ptr %38, align 8
  %39 = getelementptr inbounds %class.anon.16, ptr %13, i32 0, i32 1
  store ptr %8, ptr %39, align 8
  %40 = getelementptr inbounds { ptr, ptr }, ptr %13, i32 0, i32 0
  %41 = load ptr, ptr %40, align 8
  %42 = getelementptr inbounds { ptr, ptr }, ptr %13, i32 0, i32 1
  %43 = load ptr, ptr %42, align 8
  invoke void @"_ZN7FinallyIZN3nix12startProcessESt8functionIFvvEERKNS0_14ProcessOptionsEE3$_1EC2ES7_"(ptr noundef nonnull align 8 dereferenceable(16) %12, ptr %41, ptr %43)
          to label %44 unwind label %33

44:                                               ; preds = %37
  %45 = load ptr, ptr %9, align 8
  %46 = load i64, ptr %8, align 8
  %47 = getelementptr inbounds i8, ptr %45, i64 %46
  %48 = load ptr, ptr %4, align 8
  %49 = getelementptr inbounds %"struct.nix::ProcessOptions", ptr %48, i32 0, i32 4
  %50 = load i32, ptr %49, align 4
  %51 = or i32 %50, 17
  %52 = call i32 (ptr, ptr, i32, ptr, ...) @clone(ptr noundef @_ZN3nixL10childEntryEPv, ptr noundef %47, i32 noundef %51, ptr noundef %5) #1
  store i32 %52, ptr %7, align 4
  call void @"_ZN7FinallyIZN3nix12startProcessESt8functionIFvvEERKNS0_14ProcessOptionsEE3$_1ED2Ev"(ptr noundef nonnull align 8 dereferenceable(16) %12) #1
  br label %60

53:                                               ; preds = %2
  %54 = load ptr, ptr %4, align 8
  %55 = getelementptr inbounds %"struct.nix::ProcessOptions", ptr %54, i32 0, i32 3
  %56 = load i8, ptr %55, align 2
  %57 = trunc i8 %56 to i1
  %58 = invoke noundef i32 @_ZN3nixL6doForkEbRSt8functionIFvvEE(i1 noundef zeroext %57, ptr noundef nonnull align 8 dereferenceable(32) %5)
          to label %59 unwind label %33

59:                                               ; preds = %53
  store i32 %58, ptr %7, align 4
  br label %60

60:                                               ; preds = %59, %44
  %61 = load i32, ptr %7, align 4
  %62 = icmp eq i32 %61, -1
  br i1 %62, label %63, label %70

63:                                               ; preds = %60
  %64 = call ptr @__cxa_allocate_exception(i64 384) #1
  invoke void @_ZN3nix8SysErrorC2IJA15_cEEEDpRKT_(ptr noundef nonnull align 8 dereferenceable(380) %64, ptr noundef nonnull align 1 dereferenceable(15) @.str.9)
          to label %65 unwind label %66

65:                                               ; preds = %63
  invoke void @__cxa_throw(ptr %64, ptr @_ZTIN3nix8SysErrorE, ptr @_ZN3nix8SysErrorD2Ev) #22
          to label %78 unwind label %33

66:                                               ; preds = %63
  %67 = landingpad { ptr, i32 }
          cleanup
  %68 = extractvalue { ptr, i32 } %67, 0
  store ptr %68, ptr %10, align 8
  %69 = extractvalue { ptr, i32 } %67, 1
  store i32 %69, ptr %11, align 4
  call void @__cxa_free_exception(ptr %64) #1
  br label %72

70:                                               ; preds = %60
  %71 = load i32, ptr %7, align 4
  call void @_ZNSt8functionIFvvEED2Ev(ptr noundef nonnull align 8 dereferenceable(32) %5) #1
  ret i32 %71

72:                                               ; preds = %66, %33, %29
  call void @_ZNSt8functionIFvvEED2Ev(ptr noundef nonnull align 8 dereferenceable(32) %5) #1
  br label %73

73:                                               ; preds = %72
  %74 = load ptr, ptr %10, align 8
  %75 = load i32, ptr %11, align 4
  %76 = insertvalue { ptr, i32 } poison, ptr %74, 0
  %77 = insertvalue { ptr, i32 } %76, i32 %75, 1
  resume { ptr, i32 } %77

78:                                               ; preds = %65, %28
  unreachable
}