; Function Attrs: mustprogress uwtable
define noundef i32 @_ZN3nix12startProcessESt8functionIFvvEERKNS_14ProcessOptionsE(ptr noundef %0, ptr noundef nonnull align 8 dereferenceable(40) %1) local_unnamed_addr #6 personality ptr @__gxx_personality_v0 {
  %3 = alloca %"class.std::function", align 8
  %4 = getelementptr inbounds i8, ptr %3, i64 16
  %5 = getelementptr inbounds i8, ptr %3, i64 24
  store ptr %1, ptr %3, align 8
  %.sroa.214.0..sroa_idx = getelementptr inbounds i8, ptr %3, i64 8
  store ptr %0, ptr %.sroa.214.0..sroa_idx, align 8
  store ptr @"_ZNSt17_Function_handlerIFvvEZN3nix12startProcessESt8functionIS0_ERKNS1_14ProcessOptionsEE3$_0E9_M_invokeERKSt9_Any_data", ptr %5, align 8
  store ptr @"_ZNSt17_Function_handlerIFvvEZN3nix12startProcessESt8functionIS0_ERKNS1_14ProcessOptionsEE3$_0E10_M_managerERSt9_Any_dataRKS9_St18_Manager_operation", ptr %4, align 8
  %6 = getelementptr inbounds i8, ptr %1, i64 36
  %7 = load i32, ptr %6, align 4
  %.not = icmp eq i32 %7, 0
  br i1 %.not, label %25, label %8

8:                                                ; preds = %2
  %9 = tail call ptr @mmap(ptr noundef null, i64 noundef 1048576, i32 noundef 3, i32 noundef 131106, i32 noundef -1, i64 noundef 0) #32
  %10 = icmp eq ptr %9, inttoptr (i64 -1 to ptr)
  br i1 %10, label %11, label %19

11:                                               ; preds = %8
  %12 = tail call ptr @__cxa_allocate_exception(i64 384) #32
  %13 = tail call ptr @__errno_location() #35
  %14 = load i32, ptr %13, align 4
  invoke void @_ZN3nix8SysErrorC2IJA17_cEEEiDpRKT_(ptr noundef nonnull align 8 dereferenceable(380) %12, i32 noundef %14, ptr noundef nonnull align 1 dereferenceable(17) @.str.8)
          to label %_ZN3nix8SysErrorC2IJA15_cEEEDpRKT_.exit.invoke unwind label %15

15:                                               ; preds = %11
  %16 = landingpad { ptr, i32 }
          cleanup
  tail call void @__cxa_free_exception(ptr %12) #32
  br label %47

17:                                               ; preds = %_ZN3nix8SysErrorC2IJA15_cEEEDpRKT_.exit.invoke, %25
  %18 = landingpad { ptr, i32 }
          cleanup
  br label %47

19:                                               ; preds = %8
  %20 = getelementptr inbounds i8, ptr %9, i64 1048576
  %21 = load i32, ptr %6, align 4
  %22 = or i32 %21, 17
  %23 = call i32 (ptr, ptr, i32, ptr, ...) @clone(ptr noundef nonnull @_ZN3nixL10childEntryEPv, ptr noundef nonnull %20, i32 noundef %22, ptr noundef nonnull %3) #32
  %24 = call i32 @munmap(ptr noundef %9, i64 noundef 1048576) #32
  br label %31

25:                                               ; preds = %2
  %26 = getelementptr inbounds i8, ptr %1, i64 34
  %27 = load i8, ptr %26, align 2
  %28 = and i8 %27, 1
  %29 = icmp ne i8 %28, 0
  %30 = invoke fastcc noundef i32 @_ZN3nixL6doForkEbRSt8functionIFvvEE(i1 noundef zeroext %29, ptr noundef nonnull align 8 dereferenceable(32) %3)
          to label %31 unwind label %17, !range !12

31:                                               ; preds = %25, %19
  %.0 = phi i32 [ %23, %19 ], [ %30, %25 ]
  %32 = icmp eq i32 %.0, -1
  br i1 %32, label %33, label %40

33:                                               ; preds = %31
  %34 = call ptr @__cxa_allocate_exception(i64 384) #32
  %35 = tail call ptr @__errno_location() #35
  %36 = load i32, ptr %35, align 4
  invoke void @_ZN3nix8SysErrorC2IJA15_cEEEiDpRKT_(ptr noundef nonnull align 8 dereferenceable(380) %34, i32 noundef %36, ptr noundef nonnull align 1 dereferenceable(15) @.str.9)
          to label %_ZN3nix8SysErrorC2IJA15_cEEEDpRKT_.exit.invoke unwind label %38

_ZN3nix8SysErrorC2IJA15_cEEEDpRKT_.exit.invoke:   ; preds = %11, %33
  %37 = phi ptr [ %34, %33 ], [ %12, %11 ]
  invoke void @__cxa_throw(ptr nonnull %37, ptr nonnull @_ZTIN3nix8SysErrorE, ptr nonnull @_ZN3nix8SysErrorD2Ev) #36
          to label %_ZN3nix8SysErrorC2IJA15_cEEEDpRKT_.exit.cont unwind label %17

_ZN3nix8SysErrorC2IJA15_cEEEDpRKT_.exit.cont:     ; preds = %_ZN3nix8SysErrorC2IJA15_cEEEDpRKT_.exit.invoke
  unreachable

38:                                               ; preds = %33
  %39 = landingpad { ptr, i32 }
          cleanup
  call void @__cxa_free_exception(ptr %34) #32
  br label %47

40:                                               ; preds = %31
  %41 = load ptr, ptr %4, align 8
  %.not.i.i = icmp eq ptr %41, null
  br i1 %.not.i.i, label %_ZNSt8functionIFvvEED2Ev.exit, label %42

42:                                               ; preds = %40
  %43 = invoke noundef zeroext i1 %41(ptr noundef nonnull align 8 dereferenceable(16) %3, ptr noundef nonnull align 8 dereferenceable(16) %3, i32 noundef 3)
          to label %_ZNSt8functionIFvvEED2Ev.exit unwind label %44

44:                                               ; preds = %42
  %45 = landingpad { ptr, i32 }
          catch ptr null
  %46 = extractvalue { ptr, i32 } %45, 0
  call void @__clang_call_terminate(ptr %46) #33
  unreachable

_ZNSt8functionIFvvEED2Ev.exit:                    ; preds = %40, %42
  ret i32 %.0

47:                                               ; preds = %38, %17, %15
  %.pn = phi { ptr, i32 } [ %18, %17 ], [ %16, %15 ], [ %39, %38 ]
  %48 = load ptr, ptr %4, align 8
  %.not.i.i11 = icmp eq ptr %48, null
  br i1 %.not.i.i11, label %_ZNSt8functionIFvvEED2Ev.exit12, label %49

49:                                               ; preds = %47
  %50 = invoke noundef zeroext i1 %48(ptr noundef nonnull align 8 dereferenceable(16) %3, ptr noundef nonnull align 8 dereferenceable(16) %3, i32 noundef 3)
          to label %_ZNSt8functionIFvvEED2Ev.exit12 unwind label %51

51:                                               ; preds = %49
  %52 = landingpad { ptr, i32 }
          catch ptr null
  %53 = extractvalue { ptr, i32 } %52, 0
  call void @__clang_call_terminate(ptr %53) #33
  unreachable

_ZNSt8functionIFvvEED2Ev.exit12:                  ; preds = %47, %49
  resume { ptr, i32 } %.pn
}